; ModuleID = '24/713.c'
source_filename = "24/713.c"
target datalayout = "e-m:e-p270:32:32-p271:32:32-p272:64:64-i64:64-f80:128-n8:16:32:64-S128"
target triple = "x86_64-pc-linux-gnu"

@.str = private unnamed_addr constant [3 x i8] c"%s\00", align 1
@.str.1 = private unnamed_addr constant [4 x i8] c"\0A%s\00", align 1

; Function Attrs: noinline nounwind uwtable
define dso_local i32 @main() #0 {
  %1 = alloca i32, align 4
  %2 = alloca [3000 x i8], align 16
  %3 = alloca i32, align 4
  %4 = alloca i32, align 4
  %5 = alloca i32, align 4
  %6 = alloca [50 x [100 x i8]], align 16
  %7 = alloca i32, align 4
  %8 = alloca i32, align 4
  %9 = alloca [50 x i32], align 16
  %10 = alloca i32, align 4
  %11 = alloca i32, align 4
  %12 = alloca i32, align 4
  %13 = alloca i32, align 4
  store i32 0, i32* %1, align 4
  %14 = getelementptr inbounds [3000 x i8], [3000 x i8]* %2, i64 0, i64 0
  %15 = call i32 (i8*, ...) bitcast (i32 (...)* @gets to i32 (i8*, ...)*)(i8* %14)
  %16 = getelementptr inbounds [3000 x i8], [3000 x i8]* %2, i64 0, i64 0
  %17 = call i64 @strlen(i8* %16) #4
  %18 = trunc i64 %17 to i32
  store i32 %18, i32* %3, align 4
  store i32 0, i32* %5, align 4
  %19 = bitcast [50 x [100 x i8]]* %6 to i8*
  call void @llvm.memset.p0i8.i64(i8* align 16 %19, i8 0, i64 5000, i1 false)
  store i32 0, i32* %7, align 4
  store i32 0, i32* %8, align 4
  store i32 0, i32* %4, align 4
  br label %20

20:                                               ; preds = %55, %0
  %21 = load i32, i32* %4, align 4
  %22 = load i32, i32* %3, align 4
  %23 = icmp slt i32 %21, %22
  br i1 %23, label %24, label %58

24:                                               ; preds = %20
  %25 = load i32, i32* %4, align 4
  %26 = sext i32 %25 to i64
  %27 = getelementptr inbounds [3000 x i8], [3000 x i8]* %2, i64 0, i64 %26
  %28 = load i8, i8* %27, align 1
  %29 = sext i8 %28 to i32
  %30 = icmp ne i32 %29, 32
  br i1 %30, label %31, label %44

31:                                               ; preds = %24
  %32 = load i32, i32* %4, align 4
  %33 = sext i32 %32 to i64
  %34 = getelementptr inbounds [3000 x i8], [3000 x i8]* %2, i64 0, i64 %33
  %35 = load i8, i8* %34, align 1
  %36 = load i32, i32* %7, align 4
  %37 = sext i32 %36 to i64
  %38 = getelementptr inbounds [50 x [100 x i8]], [50 x [100 x i8]]* %6, i64 0, i64 %37
  %39 = load i32, i32* %8, align 4
  %40 = sext i32 %39 to i64
  %41 = getelementptr inbounds [100 x i8], [100 x i8]* %38, i64 0, i64 %40
  store i8 %35, i8* %41, align 1
  %42 = load i32, i32* %8, align 4
  %43 = add nsw i32 %42, 1
  store i32 %43, i32* %8, align 4
  br label %44

44:                                               ; preds = %31, %24
  %45 = load i32, i32* %4, align 4
  %46 = sext i32 %45 to i64
  %47 = getelementptr inbounds [3000 x i8], [3000 x i8]* %2, i64 0, i64 %46
  %48 = load i8, i8* %47, align 1
  %49 = sext i8 %48 to i32
  %50 = icmp eq i32 %49, 32
  br i1 %50, label %51, label %54

51:                                               ; preds = %44
  %52 = load i32, i32* %7, align 4
  %53 = add nsw i32 %52, 1
  store i32 %53, i32* %7, align 4
  store i32 0, i32* %8, align 4
  br label %54

54:                                               ; preds = %51, %44
  br label %55

55:                                               ; preds = %54
  %56 = load i32, i32* %4, align 4
  %57 = add nsw i32 %56, 1
  store i32 %57, i32* %4, align 4
  br label %20

58:                                               ; preds = %20
  store i32 0, i32* %4, align 4
  br label %59

59:                                               ; preds = %73, %58
  %60 = load i32, i32* %4, align 4
  %61 = load i32, i32* %7, align 4
  %62 = icmp sle i32 %60, %61
  br i1 %62, label %63, label %76

63:                                               ; preds = %59
  %64 = load i32, i32* %4, align 4
  %65 = sext i32 %64 to i64
  %66 = getelementptr inbounds [50 x [100 x i8]], [50 x [100 x i8]]* %6, i64 0, i64 %65
  %67 = getelementptr inbounds [100 x i8], [100 x i8]* %66, i64 0, i64 0
  %68 = call i64 @strlen(i8* %67) #4
  %69 = trunc i64 %68 to i32
  %70 = load i32, i32* %4, align 4
  %71 = sext i32 %70 to i64
  %72 = getelementptr inbounds [50 x i32], [50 x i32]* %9, i64 0, i64 %71
  store i32 %69, i32* %72, align 4
  br label %73

73:                                               ; preds = %63
  %74 = load i32, i32* %4, align 4
  %75 = add nsw i32 %74, 1
  store i32 %75, i32* %4, align 4
  br label %59

76:                                               ; preds = %59
  store i32 0, i32* %4, align 4
  br label %77

77:                                               ; preds = %121, %76
  %78 = load i32, i32* %4, align 4
  %79 = load i32, i32* %7, align 4
  %80 = icmp sle i32 %78, %79
  br i1 %80, label %81, label %124

81:                                               ; preds = %77
  %82 = load i32, i32* %7, align 4
  store i32 %82, i32* %8, align 4
  br label %83

83:                                               ; preds = %117, %81
  %84 = load i32, i32* %8, align 4
  %85 = load i32, i32* %4, align 4
  %86 = icmp sgt i32 %84, %85
  br i1 %86, label %87, label %120

87:                                               ; preds = %83
  %88 = load i32, i32* %8, align 4
  %89 = sext i32 %88 to i64
  %90 = getelementptr inbounds [50 x i32], [50 x i32]* %9, i64 0, i64 %89
  %91 = load i32, i32* %90, align 4
  %92 = load i32, i32* %8, align 4
  %93 = sub nsw i32 %92, 1
  %94 = sext i32 %93 to i64
  %95 = getelementptr inbounds [50 x i32], [50 x i32]* %9, i64 0, i64 %94
  %96 = load i32, i32* %95, align 4
  %97 = icmp sgt i32 %91, %96
  br i1 %97, label %98, label %116

98:                                               ; preds = %87
  %99 = load i32, i32* %8, align 4
  %100 = sext i32 %99 to i64
  %101 = getelementptr inbounds [50 x i32], [50 x i32]* %9, i64 0, i64 %100
  %102 = load i32, i32* %101, align 4
  store i32 %102, i32* %10, align 4
  %103 = load i32, i32* %8, align 4
  %104 = sub nsw i32 %103, 1
  %105 = sext i32 %104 to i64
  %106 = getelementptr inbounds [50 x i32], [50 x i32]* %9, i64 0, i64 %105
  %107 = load i32, i32* %106, align 4
  %108 = load i32, i32* %8, align 4
  %109 = sext i32 %108 to i64
  %110 = getelementptr inbounds [50 x i32], [50 x i32]* %9, i64 0, i64 %109
  store i32 %107, i32* %110, align 4
  %111 = load i32, i32* %10, align 4
  %112 = load i32, i32* %8, align 4
  %113 = sub nsw i32 %112, 1
  %114 = sext i32 %113 to i64
  %115 = getelementptr inbounds [50 x i32], [50 x i32]* %9, i64 0, i64 %114
  store i32 %111, i32* %115, align 4
  br label %116

116:                                              ; preds = %98, %87
  br label %117

117:                                              ; preds = %116
  %118 = load i32, i32* %8, align 4
  %119 = add nsw i32 %118, -1
  store i32 %119, i32* %8, align 4
  br label %83

120:                                              ; preds = %83
  br label %121

121:                                              ; preds = %120
  %122 = load i32, i32* %4, align 4
  %123 = add nsw i32 %122, 1
  store i32 %123, i32* %4, align 4
  br label %77

124:                                              ; preds = %77
  %125 = getelementptr inbounds [50 x i32], [50 x i32]* %9, i64 0, i64 0
  %126 = load i32, i32* %125, align 16
  store i32 %126, i32* %11, align 4
  %127 = load i32, i32* %7, align 4
  %128 = sext i32 %127 to i64
  %129 = getelementptr inbounds [50 x i32], [50 x i32]* %9, i64 0, i64 %128
  %130 = load i32, i32* %129, align 4
  store i32 %130, i32* %12, align 4
  store i32 0, i32* %5, align 4
  store i32 0, i32* %13, align 4
  store i32 0, i32* %4, align 4
  br label %131

131:                                              ; preds = %156, %124
  %132 = load i32, i32* %4, align 4
  %133 = load i32, i32* %7, align 4
  %134 = icmp sle i32 %132, %133
  br i1 %134, label %135, label %159

135:                                              ; preds = %131
  %136 = load i32, i32* %4, align 4
  %137 = sext i32 %136 to i64
  %138 = getelementptr inbounds [50 x [100 x i8]], [50 x [100 x i8]]* %6, i64 0, i64 %137
  %139 = getelementptr inbounds [100 x i8], [100 x i8]* %138, i64 0, i64 0
  %140 = call i64 @strlen(i8* %139) #4
  %141 = load i32, i32* %11, align 4
  %142 = sext i32 %141 to i64
  %143 = icmp eq i64 %140, %142
  br i1 %143, label %144, label %155

144:                                              ; preds = %135
  %145 = load i32, i32* %5, align 4
  %146 = icmp eq i32 %145, 0
  br i1 %146, label %147, label %155

147:                                              ; preds = %144
  %148 = load i32, i32* %4, align 4
  %149 = sext i32 %148 to i64
  %150 = getelementptr inbounds [50 x [100 x i8]], [50 x [100 x i8]]* %6, i64 0, i64 %149
  %151 = getelementptr inbounds [100 x i8], [100 x i8]* %150, i64 0, i64 0
  %152 = call i32 (i8*, ...) @printf(i8* getelementptr inbounds ([3 x i8], [3 x i8]* @.str, i64 0, i64 0), i8* %151)
  %153 = load i32, i32* %5, align 4
  %154 = add nsw i32 %153, 1
  store i32 %154, i32* %5, align 4
  br label %155

155:                                              ; preds = %147, %144, %135
  br label %156

156:                                              ; preds = %155
  %157 = load i32, i32* %4, align 4
  %158 = add nsw i32 %157, 1
  store i32 %158, i32* %4, align 4
  br label %131

159:                                              ; preds = %131
  store i32 0, i32* %4, align 4
  br label %160

160:                                              ; preds = %185, %159
  %161 = load i32, i32* %4, align 4
  %162 = load i32, i32* %7, align 4
  %163 = icmp sle i32 %161, %162
  br i1 %163, label %164, label %188

164:                                              ; preds = %160
  %165 = load i32, i32* %4, align 4
  %166 = sext i32 %165 to i64
  %167 = getelementptr inbounds [50 x [100 x i8]], [50 x [100 x i8]]* %6, i64 0, i64 %166
  %168 = getelementptr inbounds [100 x i8], [100 x i8]* %167, i64 0, i64 0
  %169 = call i64 @strlen(i8* %168) #4
  %170 = load i32, i32* %12, align 4
  %171 = sext i32 %170 to i64
  %172 = icmp eq i64 %169, %171
  br i1 %172, label %173, label %184

173:                                              ; preds = %164
  %174 = load i32, i32* %13, align 4
  %175 = icmp eq i32 %174, 0
  br i1 %175, label %176, label %184

176:                                              ; preds = %173
  %177 = load i32, i32* %4, align 4
  %178 = sext i32 %177 to i64
  %179 = getelementptr inbounds [50 x [100 x i8]], [50 x [100 x i8]]* %6, i64 0, i64 %178
  %180 = getelementptr inbounds [100 x i8], [100 x i8]* %179, i64 0, i64 0
  %181 = call i32 (i8*, ...) @printf(i8* getelementptr inbounds ([4 x i8], [4 x i8]* @.str.1, i64 0, i64 0), i8* %180)
  %182 = load i32, i32* %13, align 4
  %183 = add nsw i32 %182, 1
  store i32 %183, i32* %13, align 4
  br label %184

184:                                              ; preds = %176, %173, %164
  br label %185

185:                                              ; preds = %184
  %186 = load i32, i32* %4, align 4
  %187 = add nsw i32 %186, 1
  store i32 %187, i32* %4, align 4
  br label %160

188:                                              ; preds = %160
  ret i32 0
}

declare dso_local i32 @gets(...) #1

; Function Attrs: nounwind readonly
declare dso_local i64 @strlen(i8*) #2

; Function Attrs: argmemonly nounwind willreturn
declare void @llvm.memset.p0i8.i64(i8* nocapture writeonly, i8, i64, i1 immarg) #3

declare dso_local i32 @printf(i8*, ...) #1


!llvm.module.flags = !{!0}
!llvm.ident = !{!1}

!0 = !{i32 1, !"wchar_size", i32 4}
!1 = !{!"clang version 10.0.0-4ubuntu1 "}
